target datalayout = "e-m:e-p270:32:32-p271:32:32-p272:64:64-i64:64-i128:128-f80:128-n8:16:32:64-S128"
target triple = "x86_64-pc-linux-gnu"

%struct.redisServer = type { i32, i64, ptr, ptr, ptr, i32, i32, i32, i32, i32, ptr, ptr, ptr, ptr, ptr, i32, i32, i32, i32, i64, i32, i32, i32, i32, ptr, i32, i32, [41 x i8], i32, i64, i32, i32, i32, ptr, ptr, i32, i32, i64, ptr, ptr, ptr, ptr, [2 x i32], i32, i32, i32, i32, i32, i32, [16 x ptr], i32, ptr, ptr, i32, [8 x %struct.connListener], i32, %struct.connListener, ptr, ptr, ptr, ptr, ptr, ptr, ptr, ptr, ptr, ptr, i32, ptr, i32, ptr, [3 x %struct.pause_event], [256 x i8], ptr, i64, i32, i32, [128 x i32], i32, i32, i64, i32, i32, i32, i32, i32, i64, i64, i64, i64, i64, i64, i64, i64, i64, i64, double, i64, i64, i64, i64, i64, i64, i64, i64, i64, i64, i64, i64, i64, i64, i64, i64, i64, i64, i64, i64, i64, double, i64, i64, i64, i64, i64, ptr, i64, i64, i64, %struct.malloc_stats, i64, i64, i64, i64, i64, i64, i64, i64, i64, i64, i64, i64, double, [4 x i64], i64, i64, i64, i64, [128 x i64], [128 x i64], i64, i64, [7 x %struct.anon.2], i64, i64, i64, i64, i64, i64, [4 x %struct.durationStats], i32, i32, i32, i32, i32, i32, i32, i32, i32, i32, i32, i32, i64, i32, i32, i32, i32, i64, i64, i32, i32, i32, i32, i32, ptr, [3 x %struct.clientBufferLimitsConfig], i32, i32, i32, ptr, i32, i32, i32, i32, i32, i32, ptr, ptr, i32, i32, i64, i64, i64, i64, i64, i32, i32, ptr, i32, i32, i64, i64, i64, i64, i64, i32, i32, i64, i32, i32, i32, i32, i32, i32, i32, i32, ptr, i32, i64, i64, i64, i64, i32, ptr, i32, ptr, i32, i32, i32, i64, i64, i64, i64, i32, i32, i32, i32, i32, i32, ptr, i32, i32, ptr, i32, i32, i32, [2 x i32], i32, %struct.redisOpArray, i32, ptr, i32, ptr, i32, i32, i32, i32, i32, i32, i32, [41 x i8], [41 x i8], i64, i64, i64, i64, i32, i32, ptr, i64, i64, %struct.replDataBuf, i64, i64, i32, i32, i32, i32, i32, i32, i32, i32, i32, i64, ptr, i64, ptr, ptr, ptr, i32, i32, ptr, ptr, i32, i32, i32, i64, i64, i64, i64, ptr, ptr, i32, ptr, i64, i32, i32, i32, i64, i32, i32, i32, i32, ptr, i32, i32, [41 x i8], i64, i32, ptr, i32, i32, i64, i64, i32, i32, i32, i32, i32, i64, [3 x i32], i32, i32, i32, [10 x i32], ptr, ptr, i32, i64, ptr, ptr, i32, i32, i32, i32, i64, i64, i64, i64, i64, i64, i64, i64, i64, i64, i32, i32, i64, i64, i32, i64, i64, i64, i64, i64, ptr, ptr, i32, ptr, i32, i32, i32, i32, i64, i64, ptr, ptr, i32, i32, i32, i32, i32, ptr, ptr, ptr, i32, i32, i32, i32, i32, i32, i32, i64, i32, i32, i64, i32, i32, i32, i32, i32, i32, i32, i64, ptr, ptr, i64, ptr, i32, %struct.aclInfo, i32, i64, i32, i32, i32, %struct.redisTLSContextConfig, ptr, ptr, ptr, ptr, ptr, i64, i32, ptr, i32, i32, i32, i64, i32, ptr }
%struct.connListener = type { [16 x i32], i32, ptr, i32, i32, ptr, ptr }
%struct.pause_event = type { i32, i64 }
%struct.malloc_stats = type { i64, i64, i64, i64, i64, i64, i64, i64, i64, i64, i64 }
%struct.anon.2 = type { i64, i64, [16 x i64], i32 }
%struct.durationStats = type { i64, i64, i64 }
%struct.clientBufferLimitsConfig = type { i64, i64, i64 }
%struct.redisOpArray = type { ptr, i32, i32 }
%struct.replDataBuf = type { ptr, i64, i64, i64, i64 }
%struct.aclInfo = type { i64, i64, i64, i64 }
%struct.redisTLSContextConfig = type { ptr, ptr, ptr, ptr, ptr, ptr, ptr, ptr, ptr, ptr, ptr, ptr, i32, i32, i32, i32 }
%union.pthread_mutex_t = type { %struct.__pthread_mutex_s }
%struct.__pthread_mutex_s = type { i32, i32, i32, i32, i32, i16, i16, %struct.__pthread_internal_list }
%struct.__pthread_internal_list = type { ptr, ptr }
%struct.RedisModuleCtx = type { ptr, ptr, ptr, ptr, ptr, i32, i32, i32, ptr, i32, ptr, ptr, ptr, ptr, i64, ptr }

@server = external global %struct.redisServer, align 8
@getMonotonicUs = external global ptr, align 8
@RM_Yield.yield_nesting = internal global i32 0, align 4
@.str.33 = private unnamed_addr constant [2 x i8] c"A\00", align 1
@moduleGIL = internal global %union.pthread_mutex_t zeroinitializer, align 8

; Function Attrs: nounwind uwtable
define dso_local void @moduleAcquireGIL() #0 {
  %1 = call i32 @pthread_mutex_lock(ptr noundef @moduleGIL) #15
  ret void
}

; Function Attrs: nounwind uwtable
define dso_local void @moduleReleaseGIL() #0 {
  %1 = call i32 @pthread_mutex_unlock(ptr noundef @moduleGIL) #15
  ret void
}

; Function Attrs: inlinehint nounwind willreturn memory(none) uwtable
define available_externally i32 @pthread_equal(i64 noundef %0, i64 noundef %1) #11 {
  %3 = alloca i64, align 8
  %4 = alloca i64, align 8
  store i64 %0, ptr %3, align 8, !tbaa !5
  store i64 %1, ptr %4, align 8, !tbaa !5
  %5 = load i64, ptr %3, align 8, !tbaa !5
  %6 = load i64, ptr %4, align 8, !tbaa !5
  %7 = icmp eq i64 %5, %6
  %8 = zext i1 %7 to i32
  ret i32 %8
}

; Function Attrs: nounwind uwtable
define dso_local void @RM_Yield(ptr noundef %0, i32 noundef %1, ptr noundef %2) #0 {
  %4 = alloca ptr, align 8
  %5 = alloca i32, align 4
  %6 = alloca ptr, align 8
  %7 = alloca i64, align 8
  %8 = alloca ptr, align 8
  %9 = alloca i32, align 4
  %10 = alloca i32, align 4
  store ptr %0, ptr %4, align 8, !tbaa !13
  store i32 %1, ptr %5, align 4, !tbaa !29
  store ptr %2, ptr %6, align 8, !tbaa !11
  %11 = load i32, ptr @RM_Yield.yield_nesting, align 4, !tbaa !29
  %12 = icmp ne i32 %11, 0
  br i1 %12, label %13, label %14

13:                                               ; preds = %3
  br label %84

14:                                               ; preds = %3
  %15 = load i32, ptr @RM_Yield.yield_nesting, align 4, !tbaa !29
  %16 = add nsw i32 %15, 1
  store i32 %16, ptr @RM_Yield.yield_nesting, align 4, !tbaa !29
  call void @llvm.lifetime.start.p0(i64 8, ptr %7) #15
  %17 = load ptr, ptr @getMonotonicUs, align 8, !tbaa !9
  %18 = call i64 %17()
  store i64 %18, ptr %7, align 8, !tbaa !286
  %19 = load i64, ptr %7, align 8, !tbaa !286
  %20 = load ptr, ptr %4, align 8, !tbaa !13
  %21 = getelementptr inbounds nuw %struct.RedisModuleCtx, ptr %20, i32 0, i32 14
  %22 = load i64, ptr %21, align 8, !tbaa !127
  %23 = icmp sge i64 %19, %22
  br i1 %23, label %24, label %81

24:                                               ; preds = %14
  %25 = load volatile i32, ptr getelementptr inbounds nuw (%struct.redisServer, ptr @server, i32 0, i32 84), align 4, !tbaa !125
  %26 = icmp ne i32 %25, 0
  br i1 %26, label %27, label %28

27:                                               ; preds = %24
  call void @processEventsWhileBlocked()
  br label %73

28:                                               ; preds = %24
  call void @llvm.lifetime.start.p0(i64 8, ptr %8) #15
  %29 = load ptr, ptr getelementptr inbounds nuw (%struct.redisServer, ptr @server, i32 0, i32 33), align 8, !tbaa !287
  store ptr %29, ptr %8, align 8, !tbaa !11
  %30 = load ptr, ptr %6, align 8, !tbaa !11
  store ptr %30, ptr getelementptr inbounds nuw (%struct.redisServer, ptr @server, i32 0, i32 33), align 8, !tbaa !287
  %31 = load i32, ptr getelementptr inbounds nuw (%struct.redisServer, ptr @server, i32 0, i32 32), align 8, !tbaa !96
  %32 = icmp ne i32 %31, 0
  br i1 %32, label %39, label %33

33:                                               ; preds = %28
  store i32 1, ptr getelementptr inbounds nuw (%struct.redisServer, ptr @server, i32 0, i32 32), align 8, !tbaa !96
  call void @blockingOperationStarts()
  %34 = load ptr, ptr getelementptr inbounds nuw (%struct.redisServer, ptr @server, i32 0, i32 63), align 8, !tbaa !97
  %35 = icmp ne ptr %34, null
  br i1 %35, label %36, label %38

36:                                               ; preds = %33
  %37 = load ptr, ptr getelementptr inbounds nuw (%struct.redisServer, ptr @server, i32 0, i32 63), align 8, !tbaa !97
  call void @protectClient(ptr noundef %37)
  br label %38

38:                                               ; preds = %36, %33
  br label %39

39:                                               ; preds = %38, %28
  %40 = load i32, ptr %5, align 4, !tbaa !29
  %41 = and i32 %40, 2
  %42 = icmp ne i32 %41, 0
  br i1 %42, label %43, label %46

43:                                               ; preds = %39
  %44 = load i32, ptr getelementptr inbounds nuw (%struct.redisServer, ptr @server, i32 0, i32 32), align 8, !tbaa !96
  %45 = or i32 %44, 2
  store i32 %45, ptr getelementptr inbounds nuw (%struct.redisServer, ptr @server, i32 0, i32 32), align 8, !tbaa !96
  br label %46

46:                                               ; preds = %43, %39
  %47 = load i64, ptr getelementptr inbounds nuw (%struct.redisServer, ptr @server, i32 0, i32 1), align 8, !tbaa !288
  %48 = call i64 @pthread_self() #20
  %49 = call i32 @pthread_equal(i64 noundef %47, i64 noundef %48) #20
  %50 = icmp ne i32 %49, 0
  br i1 %50, label %68, label %51

51:                                               ; preds = %46
  call void @llvm.lifetime.start.p0(i64 4, ptr %9) #15
  br label %52

52:                                               ; preds = %51
  %53 = load atomic i32, ptr getelementptr inbounds nuw (%struct.redisServer, ptr @server, i32 0, i32 45) monotonic, align 8
  store i32 %53, ptr %10, align 4
  %54 = load i32, ptr %10, align 4, !tbaa !29
  store i32 %54, ptr %9, align 4, !tbaa !29
  br label %55

55:                                               ; preds = %52
  br label %56

56:                                               ; preds = %55
  %57 = load i32, ptr %9, align 4, !tbaa !29
  %58 = icmp ne i32 %57, 0
  br i1 %58, label %65, label %59

59:                                               ; preds = %56
  %60 = load i32, ptr getelementptr inbounds ([2 x i32], ptr getelementptr inbounds nuw (%struct.redisServer, ptr @server, i32 0, i32 42), i64 0, i64 1), align 4, !tbaa !29
  %61 = call i64 @write(i32 noundef %60, ptr noundef @.str.33, i64 noundef 1)
  %62 = icmp ne i64 %61, 1
  br i1 %62, label %63, label %64

63:                                               ; preds = %59
  br label %64

64:                                               ; preds = %63, %59
  br label %67

65:                                               ; preds = %56
  call void @moduleReleaseGIL()
  %66 = call i32 @usleep(i32 noundef 0)
  call void @moduleAcquireGIL()
  br label %67

67:                                               ; preds = %65, %64
  call void @llvm.lifetime.end.p0(i64 4, ptr %9) #15
  br label %69

68:                                               ; preds = %46
  call void @processEventsWhileBlocked()
  br label %69

69:                                               ; preds = %68, %67
  %70 = load ptr, ptr %8, align 8, !tbaa !11
  store ptr %70, ptr getelementptr inbounds nuw (%struct.redisServer, ptr @server, i32 0, i32 33), align 8, !tbaa !287
  %71 = load i32, ptr getelementptr inbounds nuw (%struct.redisServer, ptr @server, i32 0, i32 32), align 8, !tbaa !96
  %72 = and i32 %71, -3
  store i32 %72, ptr getelementptr inbounds nuw (%struct.redisServer, ptr @server, i32 0, i32 32), align 8, !tbaa !96
  call void @llvm.lifetime.end.p0(i64 8, ptr %8) #15
  br label %73

73:                                               ; preds = %69, %27
  %74 = load i64, ptr %7, align 8, !tbaa !286
  %75 = load i32, ptr getelementptr inbounds nuw (%struct.redisServer, ptr @server, i32 0, i32 8), align 4, !tbaa !126
  %76 = sdiv i32 1000000, %75
  %77 = sext i32 %76 to i64
  %78 = add nsw i64 %74, %77
  %79 = load ptr, ptr %4, align 8, !tbaa !13
  %80 = getelementptr inbounds nuw %struct.RedisModuleCtx, ptr %79, i32 0, i32 14
  store i64 %78, ptr %80, align 8, !tbaa !127
  br label %81

81:                                               ; preds = %73, %14
  %82 = load i32, ptr @RM_Yield.yield_nesting, align 4, !tbaa !29
  %83 = add nsw i32 %82, -1
  store i32 %83, ptr @RM_Yield.yield_nesting, align 4, !tbaa !29
  call void @llvm.lifetime.end.p0(i64 8, ptr %7) #15
  br label %84

84:                                               ; preds = %81, %13
  ret void
}