; Function Attrs: nounwind uwtable
define dso_local void @RM_Yield(ptr noundef captures(none) %0, i32 noundef %1, ptr noundef %2) #0 {
  %4 = load i32, ptr @RM_Yield.yield_nesting, align 4, !tbaa !22
  %.not = icmp eq i32 %4, 0
  br i1 %.not, label %5, label %48

5:                                                ; preds = %3
  store i32 1, ptr @RM_Yield.yield_nesting, align 4, !tbaa !22
  %6 = load ptr, ptr @getMonotonicUs, align 8, !tbaa !83
  %7 = tail call i64 %6() #35
  %8 = getelementptr inbounds nuw i8, ptr %0, i64 104
  %9 = load i64, ptr %8, align 8, !tbaa !116
  %.not10 = icmp slt i64 %7, %9
  br i1 %.not10, label %45, label %10

10:                                               ; preds = %5
  %11 = load volatile i32, ptr getelementptr inbounds nuw (i8, ptr @server, i64 2412), align 4, !tbaa !113
  %.not11 = icmp eq i32 %11, 0
  br i1 %.not11, label %13, label %12

12:                                               ; preds = %10
  tail call void @processEventsWhileBlocked() #35
  br label %40

13:                                               ; preds = %10
  %14 = load ptr, ptr getelementptr inbounds nuw (i8, ptr @server, i64 232), align 8, !tbaa !258
  store ptr %2, ptr getelementptr inbounds nuw (i8, ptr @server, i64 232), align 8, !tbaa !258
  %15 = load i32, ptr getelementptr inbounds nuw (i8, ptr @server, i64 224), align 8, !tbaa !85
  %.not12 = icmp eq i32 %15, 0
  br i1 %.not12, label %16, label %19

16:                                               ; preds = %13
  store i32 1, ptr getelementptr inbounds nuw (i8, ptr @server, i64 224), align 8, !tbaa !85
  tail call void @blockingOperationStarts() #35
  %17 = load ptr, ptr getelementptr inbounds nuw (i8, ptr @server, i64 1480), align 8, !tbaa !86
  %.not13 = icmp eq ptr %17, null
  br i1 %.not13, label %19, label %18

18:                                               ; preds = %16
  tail call void @protectClient(ptr noundef nonnull %17) #35
  br label %19

19:                                               ; preds = %16, %18, %13
  %20 = and i32 %1, 2
  %.not14 = icmp eq i32 %20, 0
  br i1 %.not14, label %24, label %21

21:                                               ; preds = %19
  %22 = load i32, ptr getelementptr inbounds nuw (i8, ptr @server, i64 224), align 8, !tbaa !85
  %23 = or i32 %22, 2
  store i32 %23, ptr getelementptr inbounds nuw (i8, ptr @server, i64 224), align 8, !tbaa !85
  br label %24

24:                                               ; preds = %21, %19
  %25 = load i64, ptr getelementptr inbounds nuw (i8, ptr @server, i64 8), align 8, !tbaa !259
  %26 = tail call i64 @pthread_self() #40
  %.not17 = icmp eq i64 %25, %26
  br i1 %.not17, label %36, label %27

27:                                               ; preds = %24
  %28 = load atomic i32, ptr getelementptr inbounds nuw (i8, ptr @server, i64 312) monotonic, align 8
  %.not16 = icmp eq i32 %28, 0
  br i1 %.not16, label %29, label %32

29:                                               ; preds = %27
  %30 = load i32, ptr getelementptr inbounds nuw (i8, ptr @server, i64 300), align 4, !tbaa !22
  %31 = tail call i64 @write(i32 noundef %30, ptr noundef nonnull @.str.33, i64 noundef 1) #35
  br label %37

32:                                               ; preds = %27
  %33 = tail call i32 @pthread_mutex_unlock(ptr noundef nonnull @moduleGIL) #35
  %34 = tail call i32 @usleep(i32 noundef 0) #35
  %35 = tail call i32 @pthread_mutex_lock(ptr noundef nonnull @moduleGIL) #35
  br label %37

36:                                               ; preds = %24
  tail call void @processEventsWhileBlocked() #35
  br label %37

37:                                               ; preds = %29, %32, %36
  store ptr %14, ptr getelementptr inbounds nuw (i8, ptr @server, i64 232), align 8, !tbaa !258
  %38 = load i32, ptr getelementptr inbounds nuw (i8, ptr @server, i64 224), align 8, !tbaa !85
  %39 = and i32 %38, -3
  store i32 %39, ptr getelementptr inbounds nuw (i8, ptr @server, i64 224), align 8, !tbaa !85
  br label %40

40:                                               ; preds = %37, %12
  %41 = load i32, ptr getelementptr inbounds nuw (i8, ptr @server, i64 52), align 4, !tbaa !114
  %42 = sdiv i32 1000000, %41
  %43 = sext i32 %42 to i64
  %44 = add nsw i64 %7, %43
  store i64 %44, ptr %8, align 8, !tbaa !116
  br label %45

45:                                               ; preds = %40, %5
  %46 = load i32, ptr @RM_Yield.yield_nesting, align 4, !tbaa !22
  %47 = add nsw i32 %46, -1
  store i32 %47, ptr @RM_Yield.yield_nesting, align 4, !tbaa !22
  br label %48

48:                                               ; preds = %3, %45
  ret void
}